target datalayout = "e-m:e-p270:32:32-p271:32:32-p272:64:64-i64:64-i128:128-f80:128-n8:16:32:64-S128"
target triple = "x86_64-pc-linux-gnu"

%struct.Hop_Obj_t_ = type { %union.anon.3, %union.anon.4, ptr, ptr, i32, i32 }
%union.anon.3 = type { ptr }
%union.anon.4 = type { ptr }

; Function Attrs: inlinehint nounwind uwtable
define internal ptr @Hop_ObjChild1(ptr noundef %0) #2 {
  %2 = alloca ptr, align 8
  store ptr %0, ptr %2, align 8, !tbaa !134
  %3 = load ptr, ptr %2, align 8, !tbaa !134
  %4 = getelementptr inbounds nuw %struct.Hop_Obj_t_, ptr %3, i32 0, i32 3
  %5 = load ptr, ptr %4, align 8, !tbaa !136
  ret ptr %5
}

; Function Attrs: inlinehint nounwind uwtable
define internal i32 @Hop_ObjIsAnd(ptr noundef %0) #2 {
  %2 = alloca ptr, align 8
  store ptr %0, ptr %2, align 8, !tbaa !134
  %3 = load ptr, ptr %2, align 8, !tbaa !134
  %4 = getelementptr inbounds nuw %struct.Hop_Obj_t_, ptr %3, i32 0, i32 4
  %5 = load i32, ptr %4, align 8
  %6 = and i32 %5, 7
  %7 = icmp eq i32 %6, 4
  %8 = zext i1 %7 to i32
  ret i32 %8
}

; Function Attrs: inlinehint nounwind uwtable
define internal ptr @Hop_ObjChild0(ptr noundef %0) #2 {
  %2 = alloca ptr, align 8
  store ptr %0, ptr %2, align 8, !tbaa !134
  %3 = load ptr, ptr %2, align 8, !tbaa !134
  %4 = getelementptr inbounds nuw %struct.Hop_Obj_t_, ptr %3, i32 0, i32 2
  %5 = load ptr, ptr %4, align 8, !tbaa !135
  ret ptr %5
}

; Function Attrs: inlinehint nounwind uwtable
define internal i32 @Hop_ObjIsPo(ptr noundef %0) #2 {
  %2 = alloca ptr, align 8
  store ptr %0, ptr %2, align 8, !tbaa !134
  %3 = load ptr, ptr %2, align 8, !tbaa !134
  %4 = getelementptr inbounds nuw %struct.Hop_Obj_t_, ptr %3, i32 0, i32 4
  %5 = load i32, ptr %4, align 8
  %6 = and i32 %5, 7
  %7 = icmp eq i32 %6, 3
  %8 = zext i1 %7 to i32
  ret i32 %8
}

; Function Attrs: inlinehint nounwind uwtable
define internal i32 @Hop_ObjIsPi(ptr noundef %0) #2 {
  %2 = alloca ptr, align 8
  store ptr %0, ptr %2, align 8, !tbaa !134
  %3 = load ptr, ptr %2, align 8, !tbaa !134
  %4 = getelementptr inbounds nuw %struct.Hop_Obj_t_, ptr %3, i32 0, i32 4
  %5 = load i32, ptr %4, align 8
  %6 = and i32 %5, 7
  %7 = icmp eq i32 %6, 2
  %8 = zext i1 %7 to i32
  ret i32 %8
}

; Function Attrs: inlinehint nounwind uwtable
define internal i32 @Hop_ObjIsConst1(ptr noundef %0) #2 {
  %2 = alloca ptr, align 8
  store ptr %0, ptr %2, align 8, !tbaa !134
  %3 = load ptr, ptr %2, align 8, !tbaa !134
  %4 = getelementptr inbounds nuw %struct.Hop_Obj_t_, ptr %3, i32 0, i32 4
  %5 = load i32, ptr %4, align 8
  %6 = and i32 %5, 7
  %7 = icmp eq i32 %6, 1
  %8 = zext i1 %7 to i32
  ret i32 %8
}

; Function Attrs: inlinehint nounwind uwtable
define internal ptr @Hop_Regular(ptr noundef %0) #2 {
  %2 = alloca ptr, align 8
  store ptr %0, ptr %2, align 8, !tbaa !134
  %3 = load ptr, ptr %2, align 8, !tbaa !134
  %4 = ptrtoint ptr %3 to i64
  %5 = and i64 %4, -2
  %6 = inttoptr i64 %5 to ptr
  ret ptr %6
}

; Function Attrs: nounwind uwtable
define internal void @Abc_FlowRetime_EvalHop_rec(ptr noundef %0, ptr noundef %1, ptr noundef %2, ptr noundef %3) #0 {
  %5 = alloca ptr, align 8
  %6 = alloca ptr, align 8
  %7 = alloca ptr, align 8
  %8 = alloca ptr, align 8
  %9 = alloca i32, align 4
  %10 = alloca i32, align 4
  %11 = alloca i32, align 4
  %12 = alloca i32, align 4
  %13 = alloca ptr, align 8
  %14 = alloca i32, align 4
  store ptr %0, ptr %5, align 8, !tbaa !117
  store ptr %1, ptr %6, align 8, !tbaa !134
  store ptr %2, ptr %7, align 8, !tbaa !99
  store ptr %3, ptr %8, align 8, !tbaa !99
  call void @llvm.lifetime.start.p0(i64 4, ptr %9) #10
  call void @llvm.lifetime.start.p0(i64 4, ptr %10) #10
  call void @llvm.lifetime.start.p0(i64 4, ptr %11) #10
  call void @llvm.lifetime.start.p0(i64 4, ptr %12) #10
  call void @llvm.lifetime.start.p0(i64 8, ptr %13) #10
  %15 = load ptr, ptr %6, align 8, !tbaa !134
  %16 = call ptr @Hop_Regular(ptr noundef %15)
  store ptr %16, ptr %13, align 8, !tbaa !134
  %17 = load ptr, ptr %13, align 8, !tbaa !134
  %18 = call i32 @Hop_ObjIsConst1(ptr noundef %17)
  %19 = icmp ne i32 %18, 0
  br i1 %19, label %20, label %30

20:                                               ; preds = %4
  %21 = load ptr, ptr %7, align 8, !tbaa !99
  store i32 1, ptr %21, align 4, !tbaa !19
  %22 = load ptr, ptr %13, align 8, !tbaa !134
  %23 = load ptr, ptr %6, align 8, !tbaa !134
  %24 = icmp eq ptr %22, %23
  %25 = select i1 %24, i32 1, i32 0
  %26 = load ptr, ptr %7, align 8, !tbaa !99
  %27 = load i32, ptr %26, align 4, !tbaa !19
  %28 = xor i32 %27, %25
  store i32 %28, ptr %26, align 4, !tbaa !19
  %29 = load ptr, ptr %8, align 8, !tbaa !99
  store i32 0, ptr %29, align 4, !tbaa !19
  store i32 1, ptr %14, align 4
  br label %99

30:                                               ; preds = %4
  %31 = load ptr, ptr %13, align 8, !tbaa !134
  %32 = call i32 @Hop_ObjIsPi(ptr noundef %31)
  %33 = icmp ne i32 %32, 0
  br i1 %33, label %34, label %54

34:                                               ; preds = %30
  %35 = load ptr, ptr %13, align 8, !tbaa !134
  %36 = getelementptr inbounds nuw %struct.Hop_Obj_t_, ptr %35, i32 0, i32 4
  %37 = load i32, ptr %36, align 8
  %38 = lshr i32 %37, 4
  %39 = and i32 %38, 1
  %40 = load ptr, ptr %7, align 8, !tbaa !99
  store i32 %39, ptr %40, align 4, !tbaa !19
  %41 = load ptr, ptr %13, align 8, !tbaa !134
  %42 = load ptr, ptr %6, align 8, !tbaa !134
  %43 = icmp eq ptr %41, %42
  %44 = select i1 %43, i32 1, i32 0
  %45 = load ptr, ptr %7, align 8, !tbaa !99
  %46 = load i32, ptr %45, align 4, !tbaa !19
  %47 = xor i32 %46, %44
  store i32 %47, ptr %45, align 4, !tbaa !19
  %48 = load ptr, ptr %13, align 8, !tbaa !134
  %49 = getelementptr inbounds nuw %struct.Hop_Obj_t_, ptr %48, i32 0, i32 4
  %50 = load i32, ptr %49, align 8
  %51 = lshr i32 %50, 5
  %52 = and i32 %51, 1
  %53 = load ptr, ptr %8, align 8, !tbaa !99
  store i32 %52, ptr %53, align 4, !tbaa !19
  store i32 1, ptr %14, align 4
  br label %99

54:                                               ; preds = %30
  %55 = load ptr, ptr %13, align 8, !tbaa !134
  %56 = call i32 @Hop_ObjIsPo(ptr noundef %55)
  %57 = icmp ne i32 %56, 0
  br i1 %57, label %58, label %64

58:                                               ; preds = %54
  %59 = load ptr, ptr %5, align 8, !tbaa !117
  %60 = load ptr, ptr %13, align 8, !tbaa !134
  %61 = call ptr @Hop_ObjChild0(ptr noundef %60)
  %62 = load ptr, ptr %7, align 8, !tbaa !99
  %63 = load ptr, ptr %8, align 8, !tbaa !99
  call void @Abc_FlowRetime_EvalHop_rec(ptr noundef %59, ptr noundef %61, ptr noundef %62, ptr noundef %63)
  store i32 1, ptr %14, align 4
  br label %99

64:                                               ; preds = %54
  %65 = load ptr, ptr %13, align 8, !tbaa !134
  %66 = call i32 @Hop_ObjIsAnd(ptr noundef %65)
  %67 = icmp ne i32 %66, 0
  br i1 %67, label %68, label %98

68:                                               ; preds = %64
  %69 = load ptr, ptr %5, align 8, !tbaa !117
  %70 = load ptr, ptr %13, align 8, !tbaa !134
  %71 = call ptr @Hop_ObjChild0(ptr noundef %70)
  call void @Abc_FlowRetime_EvalHop_rec(ptr noundef %69, ptr noundef %71, ptr noundef %9, ptr noundef %10)
  %72 = load ptr, ptr %5, align 8, !tbaa !117
  %73 = load ptr, ptr %13, align 8, !tbaa !134
  %74 = call ptr @Hop_ObjChild1(ptr noundef %73)
  call void @Abc_FlowRetime_EvalHop_rec(ptr noundef %72, ptr noundef %74, ptr noundef %11, ptr noundef %12)
  %75 = load i32, ptr %10, align 4, !tbaa !19
  %76 = load i32, ptr %11, align 4, !tbaa !19
  %77 = and i32 %75, %76
  %78 = load i32, ptr %12, align 4, !tbaa !19
  %79 = load i32, ptr %9, align 4, !tbaa !19
  %80 = and i32 %78, %79
  %81 = or i32 %77, %80
  %82 = load i32, ptr %10, align 4, !tbaa !19
  %83 = load i32, ptr %12, align 4, !tbaa !19
  %84 = and i32 %82, %83
  %85 = or i32 %81, %84
  %86 = load ptr, ptr %8, align 8, !tbaa !99
  store i32 %85, ptr %86, align 4, !tbaa !19
  %87 = load i32, ptr %9, align 4, !tbaa !19
  %88 = load i32, ptr %11, align 4, !tbaa !19
  %89 = and i32 %87, %88
  %90 = load ptr, ptr %7, align 8, !tbaa !99
  store i32 %89, ptr %90, align 4, !tbaa !19
  %91 = load ptr, ptr %13, align 8, !tbaa !134
  %92 = load ptr, ptr %6, align 8, !tbaa !134
  %93 = icmp eq ptr %91, %92
  %94 = select i1 %93, i32 1, i32 0
  %95 = load ptr, ptr %7, align 8, !tbaa !99
  %96 = load i32, ptr %95, align 4, !tbaa !19
  %97 = xor i32 %96, %94
  store i32 %97, ptr %95, align 4, !tbaa !19
  store i32 1, ptr %14, align 4
  br label %99

98:                                               ; preds = %64
  store i32 0, ptr %14, align 4
  br label %99

99:                                               ; preds = %98, %68, %58, %34, %20
  call void @llvm.lifetime.end.p0(i64 8, ptr %13) #10
  call void @llvm.lifetime.end.p0(i64 4, ptr %12) #10
  call void @llvm.lifetime.end.p0(i64 4, ptr %11) #10
  call void @llvm.lifetime.end.p0(i64 4, ptr %10) #10
  call void @llvm.lifetime.end.p0(i64 4, ptr %9) #10
  %100 = load i32, ptr %14, align 4
  switch i32 %100, label %102 [
    i32 0, label %101
    i32 1, label %101
  ]

101:                                              ; preds = %99, %99
  ret void

102:                                              ; preds = %99
  unreachable
}