; Function Attrs: nofree nosync nounwind memory(readwrite, inaccessiblemem: none) uwtable
define internal fastcc void @Abc_FlowRetime_EvalHop_rec(ptr noundef %0, ptr noundef nonnull writeonly captures(none) %1, ptr noundef nonnull writeonly captures(none) %2) unnamed_addr #11 {
  %4 = alloca i32, align 4
  %5 = alloca i32, align 4
  %6 = alloca i32, align 4
  %7 = alloca i32, align 4
  call void @llvm.lifetime.start.p0(i64 4, ptr nonnull %4) #18
  call void @llvm.lifetime.start.p0(i64 4, ptr nonnull %5) #18
  call void @llvm.lifetime.start.p0(i64 4, ptr nonnull %6) #18
  call void @llvm.lifetime.start.p0(i64 4, ptr nonnull %7) #18
  %8 = ptrtoint ptr %0 to i64
  %9 = and i64 %8, -2
  %10 = inttoptr i64 %9 to ptr
  %11 = getelementptr i8, ptr %10, i64 32
  %.val = load i32, ptr %11, align 8
  %12 = and i32 %.val, 7
  switch i32 %12, label %42 [
    i32 1, label %13
    i32 2, label %16
    i32 3, label %25
    i32 4, label %27
  ]

13:                                               ; preds = %3
  %14 = icmp ne ptr %0, %10
  %15 = zext i1 %14 to i32
  store i32 %15, ptr %1, align 4, !tbaa !37
  store i32 0, ptr %2, align 4, !tbaa !37
  br label %42

16:                                               ; preds = %3
  %17 = lshr i32 %.val, 4
  %18 = and i32 %17, 1
  %19 = icmp eq ptr %0, %10
  %20 = zext i1 %19 to i32
  %21 = xor i32 %18, %20
  store i32 %21, ptr %1, align 4, !tbaa !37
  %22 = load i32, ptr %11, align 8
  %23 = lshr i32 %22, 5
  %24 = and i32 %23, 1
  store i32 %24, ptr %2, align 4, !tbaa !37
  br label %42

25:                                               ; preds = %3
  %26 = getelementptr i8, ptr %10, i64 16
  %.val35 = load ptr, ptr %26, align 8, !tbaa !116
  tail call fastcc void @Abc_FlowRetime_EvalHop_rec(ptr noundef %.val35, ptr noundef %1, ptr noundef %2)
  br label %42

27:                                               ; preds = %3
  %28 = getelementptr i8, ptr %10, i64 16
  %.val36 = load ptr, ptr %28, align 8, !tbaa !116
  call fastcc void @Abc_FlowRetime_EvalHop_rec(ptr noundef %.val36, ptr noundef %4, ptr noundef %5)
  %29 = getelementptr i8, ptr %10, i64 24
  %.val38 = load ptr, ptr %29, align 8, !tbaa !117
  call fastcc void @Abc_FlowRetime_EvalHop_rec(ptr noundef %.val38, ptr noundef %6, ptr noundef %7)
  %30 = load i32, ptr %5, align 4, !tbaa !37
  %31 = load i32, ptr %6, align 4, !tbaa !37
  %32 = and i32 %31, %30
  %33 = load i32, ptr %7, align 4, !tbaa !37
  %34 = load i32, ptr %4, align 4, !tbaa !37
  %35 = or i32 %34, %30
  %36 = and i32 %35, %33
  %37 = or i32 %36, %32
  store i32 %37, ptr %2, align 4, !tbaa !37
  %38 = and i32 %34, %31
  %39 = icmp eq ptr %0, %10
  %40 = zext i1 %39 to i32
  %41 = xor i32 %38, %40
  store i32 %41, ptr %1, align 4, !tbaa !37
  br label %42

42:                                               ; preds = %3, %27, %25, %16, %13
  call void @llvm.lifetime.end.p0(i64 4, ptr nonnull %7) #18
  call void @llvm.lifetime.end.p0(i64 4, ptr nonnull %6) #18
  call void @llvm.lifetime.end.p0(i64 4, ptr nonnull %5) #18
  call void @llvm.lifetime.end.p0(i64 4, ptr nonnull %4) #18
  ret void
}